target datalayout = "e-m:e-p270:32:32-p271:32:32-p272:64:64-i64:64-i128:128-f80:128-n8:16:32:64-S128"
target triple = "x86_64-pc-linux-gnu"

%struct._generic_SUNLinearSolver = type { ptr, ptr, ptr }
%struct._SUNLinearSolverContent_Dense = type { i64, ptr, i64 }

; Function Attrs: nounwind uwtable
define i32 @SUNLinSolSetup_Dense(ptr noundef %0, ptr noundef %1) #0 {
  %3 = alloca i32, align 4
  %4 = alloca ptr, align 8
  %5 = alloca ptr, align 8
  %6 = alloca ptr, align 8
  %7 = alloca ptr, align 8
  %8 = alloca ptr, align 8
  %9 = alloca i32, align 4
  store ptr %0, ptr %4, align 8, !tbaa !14
  store ptr %1, ptr %5, align 8, !tbaa !8
  call void @llvm.lifetime.start.p0(i64 8, ptr %6) #5
  %10 = load ptr, ptr %4, align 8, !tbaa !14
  %11 = getelementptr inbounds nuw %struct._generic_SUNLinearSolver, ptr %10, i32 0, i32 2
  %12 = load ptr, ptr %11, align 8, !tbaa !36
  store ptr %12, ptr %6, align 8, !tbaa !10
  call void @llvm.lifetime.start.p0(i64 8, ptr %7) #5
  call void @llvm.lifetime.start.p0(i64 8, ptr %8) #5
  store ptr null, ptr %7, align 8, !tbaa !37
  store ptr null, ptr %8, align 8, !tbaa !39
  %13 = load ptr, ptr %5, align 8, !tbaa !8
  %14 = call ptr @SUNDenseMatrix_Cols(ptr noundef %13)
  store ptr %14, ptr %7, align 8, !tbaa !37
  %15 = load ptr, ptr %4, align 8, !tbaa !14
  %16 = getelementptr inbounds nuw %struct._generic_SUNLinearSolver, ptr %15, i32 0, i32 0
  %17 = load ptr, ptr %16, align 8, !tbaa !30
  %18 = getelementptr inbounds nuw %struct._SUNLinearSolverContent_Dense, ptr %17, i32 0, i32 1
  %19 = load ptr, ptr %18, align 8, !tbaa !35
  store ptr %19, ptr %8, align 8, !tbaa !39
  %20 = load ptr, ptr %7, align 8, !tbaa !37
  %21 = load ptr, ptr %5, align 8, !tbaa !8
  %22 = call i64 @SUNDenseMatrix_Rows(ptr noundef %21)
  %23 = load ptr, ptr %5, align 8, !tbaa !8
  %24 = call i64 @SUNDenseMatrix_Columns(ptr noundef %23)
  %25 = load ptr, ptr %8, align 8, !tbaa !39
  %26 = call i64 @SUNDlsMat_denseGETRF(ptr noundef %20, i64 noundef %22, i64 noundef %24, ptr noundef %25)
  %27 = load ptr, ptr %4, align 8, !tbaa !14
  %28 = getelementptr inbounds nuw %struct._generic_SUNLinearSolver, ptr %27, i32 0, i32 0
  %29 = load ptr, ptr %28, align 8, !tbaa !30
  %30 = getelementptr inbounds nuw %struct._SUNLinearSolverContent_Dense, ptr %29, i32 0, i32 2
  store i64 %26, ptr %30, align 8, !tbaa !34
  %31 = load ptr, ptr %4, align 8, !tbaa !14
  %32 = getelementptr inbounds nuw %struct._generic_SUNLinearSolver, ptr %31, i32 0, i32 0
  %33 = load ptr, ptr %32, align 8, !tbaa !30
  %34 = getelementptr inbounds nuw %struct._SUNLinearSolverContent_Dense, ptr %33, i32 0, i32 2
  %35 = load i64, ptr %34, align 8, !tbaa !34
  %36 = icmp sgt i64 %35, 0
  br i1 %36, label %37, label %38

37:                                               ; preds = %2
  store i32 808, ptr %3, align 4
  store i32 1, ptr %9, align 4
  br label %39

38:                                               ; preds = %2
  store i32 0, ptr %3, align 4
  store i32 1, ptr %9, align 4
  br label %39

39:                                               ; preds = %38, %37
  call void @llvm.lifetime.end.p0(i64 8, ptr %8) #5
  call void @llvm.lifetime.end.p0(i64 8, ptr %7) #5
  call void @llvm.lifetime.end.p0(i64 8, ptr %6) #5
  %40 = load i32, ptr %3, align 4
  ret i32 %40
}