; Function Attrs: nounwind uwtable
define range(i32 0, 809) i32 @SUNLinSolSetup_Dense(ptr noundef readonly captures(none) %0, ptr noundef %1) #0 {
  %3 = tail call ptr @SUNDenseMatrix_Cols(ptr noundef %1) #9
  %4 = load ptr, ptr %0, align 8, !tbaa !19
  %5 = getelementptr inbounds nuw i8, ptr %4, i64 8
  %6 = load ptr, ptr %5, align 8, !tbaa !24
  %7 = tail call i64 @SUNDenseMatrix_Rows(ptr noundef %1) #9
  %8 = tail call i64 @SUNDenseMatrix_Columns(ptr noundef %1) #9
  %9 = tail call i64 @SUNDlsMat_denseGETRF(ptr noundef %3, i64 noundef %7, i64 noundef %8, ptr noundef %6) #9
  %10 = load ptr, ptr %0, align 8, !tbaa !19
  %11 = getelementptr inbounds nuw i8, ptr %10, i64 16
  store i64 %9, ptr %11, align 8, !tbaa !25
  %12 = icmp sgt i64 %9, 0
  %. = select i1 %12, i32 808, i32 0
  ret i32 %.
}